	.file	"struct.c"
	.text
	.globl	get_j
	.type	get_j, @function
get_j:
.LFB0:
	.cfi_startproc
	endbr32
	pushl	%ebp
	.cfi_def_cfa_offset 8
	.cfi_offset 5, -8
	movl	%esp, %ebp
	.cfi_def_cfa_register 5
	call	__x86.get_pc_thunk.dx
	addl	$_GLOBAL_OFFSET_TABLE_, %edx
	movl	8(%ebp), %eax
	leal	(%eax,%eax,2), %eax
	sall	$2, %eax
	addl	a@GOT(%edx), %eax
	movswl	8(%eax), %eax
	popl	%ebp
	.cfi_restore 5
	.cfi_def_cfa 4, 4
	ret
	.cfi_endproc
.LFE0:
	.size	get_j, .-get_j
	.comm	a,120,32
	.section	.text.__x86.get_pc_thunk.dx,"axG",@progbits,__x86.get_pc_thunk.dx,comdat
	.globl	__x86.get_pc_thunk.dx
	.hidden	__x86.get_pc_thunk.dx
	.type	__x86.get_pc_thunk.dx, @function
__x86.get_pc_thunk.dx:
.LFB1:
	.cfi_startproc
	movl	(%esp), %edx
	ret
	.cfi_endproc
.LFE1:
	.ident	"GCC: (Ubuntu 9.4.0-1ubuntu1~20.04.1) 9.4.0"
	.section	.note.GNU-stack,"",@progbits
	.section	.note.gnu.property,"a"
	.align 4
	.long	 1f - 0f
	.long	 4f - 1f
	.long	 5
0:
	.string	 "GNU"
1:
	.align 4
	.long	 0xc0000002
	.long	 3f - 2f
2:
	.long	 0x3
3:
	.align 4
4:
